target datalayout = "e-m:e-p270:32:32-p271:32:32-p272:64:64-i64:64-i128:128-f80:128-n8:16:32:64-S128"
target triple = "x86_64-pc-linux-gnu"

; Function Attrs: nounwind sspstrong uwtable
define internal ptr @utf32be_left_adjust_char_head(ptr noundef %0, ptr noundef %1, ptr noundef %2, ptr noundef %3) #0 {
  %5 = alloca ptr, align 8
  %6 = alloca ptr, align 8
  %7 = alloca ptr, align 8
  %8 = alloca ptr, align 8
  %9 = alloca ptr, align 8
  %10 = alloca i64, align 8
  %11 = alloca i32, align 4
  store ptr %0, ptr %6, align 8, !tbaa !13
  store ptr %1, ptr %7, align 8, !tbaa !13
  store ptr %2, ptr %8, align 8, !tbaa !13
  store ptr %3, ptr %9, align 8, !tbaa !14
  call void @llvm.lifetime.start.p0(i64 8, ptr %10) #3
  %12 = load ptr, ptr %7, align 8, !tbaa !13
  %13 = load ptr, ptr %6, align 8, !tbaa !13
  %14 = icmp ule ptr %12, %13
  br i1 %14, label %15, label %17

15:                                               ; preds = %4
  %16 = load ptr, ptr %7, align 8, !tbaa !13
  store ptr %16, ptr %5, align 8
  store i32 1, ptr %11, align 4
  br label %30

17:                                               ; preds = %4
  %18 = load ptr, ptr %7, align 8, !tbaa !13
  %19 = load ptr, ptr %6, align 8, !tbaa !13
  %20 = ptrtoint ptr %18 to i64
  %21 = ptrtoint ptr %19 to i64
  %22 = sub i64 %20, %21
  %23 = srem i64 %22, 4
  %24 = trunc i64 %23 to i32
  %25 = sext i32 %24 to i64
  store i64 %25, ptr %10, align 8, !tbaa !21
  %26 = load ptr, ptr %7, align 8, !tbaa !13
  %27 = load i64, ptr %10, align 8, !tbaa !21
  %28 = sub i64 0, %27
  %29 = getelementptr inbounds i8, ptr %26, i64 %28
  store ptr %29, ptr %5, align 8
  store i32 1, ptr %11, align 4
  br label %30

30:                                               ; preds = %17, %15
  call void @llvm.lifetime.end.p0(i64 8, ptr %10) #3
  %31 = load ptr, ptr %5, align 8
  ret ptr %31
}