; Function Attrs: mustprogress nofree norecurse nosync nounwind sspstrong willreturn memory(none) uwtable
define internal ptr @utf32be_left_adjust_char_head(ptr noundef %0, ptr noundef %1, ptr readnone captures(none) %2, ptr readnone captures(none) %3) #3 {
  %.not = icmp ugt ptr %1, %0
  br i1 %.not, label %5, label %12

5:                                                ; preds = %4
  %6 = ptrtoint ptr %1 to i64
  %7 = ptrtoint ptr %0 to i64
  %8 = sub i64 %6, %7
  %9 = srem i64 %8, 4
  %10 = sub nsw i64 0, %9
  %11 = getelementptr inbounds i8, ptr %1, i64 %10
  br label %12

12:                                               ; preds = %4, %5
  %.0 = phi ptr [ %11, %5 ], [ %1, %4 ]
  ret ptr %.0
}